; Function Attrs: mustprogress uwtable
define void @_ZN3zmq8object_t13send_pipe_hwmEPNS_6pipe_tEii(ptr noundef nonnull readonly align 8 captures(none) dereferenceable(20) %0, ptr noundef %1, i32 noundef %2, i32 noundef %3) local_unnamed_addr #6 align 2 {
  %5 = alloca %"struct.zmq::command_t", align 64
  call void @llvm.lifetime.start.p0(i64 64, ptr nonnull %5) #11
  store ptr %1, ptr %5, align 64, !tbaa !20
  %6 = getelementptr inbounds nuw i8, ptr %5, i64 8
  store i32 10, ptr %6, align 8, !tbaa !13
  %7 = getelementptr inbounds nuw i8, ptr %5, i64 16
  store i32 %2, ptr %7, align 16, !tbaa !17
  %8 = getelementptr inbounds nuw i8, ptr %5, i64 20
  store i32 %3, ptr %8, align 4, !tbaa !17
  %9 = getelementptr inbounds nuw i8, ptr %0, i64 8
  %10 = load ptr, ptr %9, align 8, !tbaa !6
  %11 = getelementptr inbounds nuw i8, ptr %1, i64 16
  %12 = load i32, ptr %11, align 8, !tbaa !12
  call void @_ZN3zmq5ctx_t12send_commandEjRKNS_9command_tE(ptr noundef nonnull align 8 dereferenceable(648) %10, i32 noundef %12, ptr noundef nonnull align 64 dereferenceable(64) %5)
  call void @llvm.lifetime.end.p0(i64 64, ptr nonnull %5) #11
  ret void
}